target datalayout = "e-m:e-p270:32:32-p271:32:32-p272:64:64-i64:64-i128:128-f80:128-n8:16:32:64-S128"
target triple = "x86_64-pc-linux-gnu"

%struct.evp_pkey_ctx_st = type { i32, ptr, ptr, ptr, ptr, %union.anon, %struct.anon.4, ptr, ptr, ptr, i32, i32, ptr, ptr, ptr, ptr, ptr, i8, ptr }
%union.anon = type { %struct.anon.0 }
%struct.anon.0 = type { ptr, ptr }
%struct.anon.4 = type { ptr, ptr, i64, i8 }
%struct.ossl_param_st = type { ptr, i32, ptr, i64, i64 }

@.str = private unnamed_addr constant [34 x i8] c"../openssl/crypto/evp/pmeth_lib.c\00", align 1
@__func__.EVP_PKEY_CTX_set_kem_op = private unnamed_addr constant [24 x i8] c"EVP_PKEY_CTX_set_kem_op\00", align 1
@.str.14 = private unnamed_addr constant [10 x i8] c"operation\00", align 1

; Function Attrs: nounwind uwtable
define i32 @EVP_PKEY_CTX_set_kem_op(ptr noundef %0, ptr noundef %1) #0 {
  %3 = alloca i32, align 4
  %4 = alloca ptr, align 8
  %5 = alloca ptr, align 8
  %6 = alloca [2 x %struct.ossl_param_st], align 16
  %7 = alloca ptr, align 8
  %8 = alloca i32, align 4
  %9 = alloca %struct.ossl_param_st, align 8
  %10 = alloca %struct.ossl_param_st, align 8
  store ptr %0, ptr %4, align 8, !tbaa !18
  store ptr %1, ptr %5, align 8, !tbaa !33
  call void @llvm.lifetime.start.p0(i64 80, ptr %6) #8
  call void @llvm.lifetime.start.p0(i64 8, ptr %7) #8
  %11 = getelementptr inbounds [2 x %struct.ossl_param_st], ptr %6, i64 0, i64 0
  store ptr %11, ptr %7, align 8, !tbaa !78
  %12 = load ptr, ptr %4, align 8, !tbaa !18
  %13 = icmp eq ptr %12, null
  br i1 %13, label %17, label %14

14:                                               ; preds = %2
  %15 = load ptr, ptr %5, align 8, !tbaa !33
  %16 = icmp eq ptr %15, null
  br i1 %16, label %17, label %18

17:                                               ; preds = %14, %2
  call void @ERR_new()
  call void @ERR_set_debug(ptr noundef @.str, i32 noundef 1261, ptr noundef @__func__.EVP_PKEY_CTX_set_kem_op)
  call void (i32, i32, ptr, ...) @ERR_set_error(i32 noundef 6, i32 noundef 222, ptr noundef null)
  store i32 0, ptr %3, align 4
  store i32 1, ptr %8, align 4
  br label %33

18:                                               ; preds = %14
  %19 = load ptr, ptr %4, align 8, !tbaa !18
  %20 = getelementptr inbounds nuw %struct.evp_pkey_ctx_st, ptr %19, i32 0, i32 0
  %21 = load i32, ptr %20, align 8, !tbaa !20
  %22 = and i32 %21, 12288
  %23 = icmp ne i32 %22, 0
  br i1 %23, label %25, label %24

24:                                               ; preds = %18
  call void @ERR_new()
  call void @ERR_set_debug(ptr noundef @.str, i32 noundef 1265, ptr noundef @__func__.EVP_PKEY_CTX_set_kem_op)
  call void (i32, i32, ptr, ...) @ERR_set_error(i32 noundef 6, i32 noundef 147, ptr noundef null)
  store i32 -2, ptr %3, align 4
  store i32 1, ptr %8, align 4
  br label %33

25:                                               ; preds = %18
  %26 = load ptr, ptr %7, align 8, !tbaa !78
  %27 = getelementptr inbounds nuw %struct.ossl_param_st, ptr %26, i32 1
  store ptr %27, ptr %7, align 8, !tbaa !78
  call void @llvm.lifetime.start.p0(i64 40, ptr %9) #8
  %28 = load ptr, ptr %5, align 8, !tbaa !33
  call void @OSSL_PARAM_construct_utf8_string(ptr dead_on_unwind writable sret(%struct.ossl_param_st) align 8 %9, ptr noundef @.str.14, ptr noundef %28, i64 noundef 0)
  call void @llvm.memcpy.p0.p0.i64(ptr align 8 %26, ptr align 8 %9, i64 40, i1 false), !tbaa.struct !108
  call void @llvm.lifetime.end.p0(i64 40, ptr %9) #8
  %29 = load ptr, ptr %7, align 8, !tbaa !78
  call void @llvm.lifetime.start.p0(i64 40, ptr %10) #8
  call void @OSSL_PARAM_construct_end(ptr dead_on_unwind writable sret(%struct.ossl_param_st) align 8 %10)
  call void @llvm.memcpy.p0.p0.i64(ptr align 8 %29, ptr align 8 %10, i64 40, i1 false), !tbaa.struct !108
  call void @llvm.lifetime.end.p0(i64 40, ptr %10) #8
  %30 = load ptr, ptr %4, align 8, !tbaa !18
  %31 = getelementptr inbounds [2 x %struct.ossl_param_st], ptr %6, i64 0, i64 0
  %32 = call i32 @EVP_PKEY_CTX_set_params(ptr noundef %30, ptr noundef %31)
  store i32 %32, ptr %3, align 4
  store i32 1, ptr %8, align 4
  br label %33

33:                                               ; preds = %25, %24, %17
  call void @llvm.lifetime.end.p0(i64 8, ptr %7) #8
  call void @llvm.lifetime.end.p0(i64 80, ptr %6) #8
  %34 = load i32, ptr %3, align 4
  ret i32 %34
}