; Function Attrs: nounwind uwtable
define i32 @EVP_PKEY_CTX_set_kem_op(ptr noundef %0, ptr noundef %1) local_unnamed_addr #0 {
  %3 = alloca [2 x %struct.ossl_param_st], align 16
  %4 = alloca %struct.ossl_param_st, align 8
  call void @llvm.lifetime.start.p0(i64 80, ptr nonnull %3) #10
  %5 = icmp eq ptr %0, null
  %6 = icmp eq ptr %1, null
  %or.cond = or i1 %5, %6
  br i1 %or.cond, label %7, label %8

7:                                                ; preds = %2
  tail call void @ERR_new() #10
  tail call void @ERR_set_debug(ptr noundef nonnull @.str, i32 noundef 1261, ptr noundef nonnull @__func__.EVP_PKEY_CTX_set_kem_op) #10
  tail call void (i32, i32, ptr, ...) @ERR_set_error(i32 noundef 6, i32 noundef 222, ptr noundef null) #10
  br label %15

8:                                                ; preds = %2
  %9 = load i32, ptr %0, align 8, !tbaa !15
  %10 = and i32 %9, 12288
  %.not = icmp eq i32 %10, 0
  br i1 %.not, label %11, label %12

11:                                               ; preds = %8
  tail call void @ERR_new() #10
  tail call void @ERR_set_debug(ptr noundef nonnull @.str, i32 noundef 1265, ptr noundef nonnull @__func__.EVP_PKEY_CTX_set_kem_op) #10
  tail call void (i32, i32, ptr, ...) @ERR_set_error(i32 noundef 6, i32 noundef 147, ptr noundef null) #10
  br label %15

12:                                               ; preds = %8
  %13 = getelementptr inbounds nuw i8, ptr %3, i64 40
  call void @OSSL_PARAM_construct_utf8_string(ptr dead_on_unwind nonnull writable sret(%struct.ossl_param_st) align 8 %3, ptr noundef nonnull @.str.14, ptr noundef nonnull %1, i64 noundef 0) #10
  call void @llvm.lifetime.start.p0(i64 40, ptr nonnull %4) #10
  call void @OSSL_PARAM_construct_end(ptr dead_on_unwind nonnull writable sret(%struct.ossl_param_st) align 8 %4) #10
  call void @llvm.memcpy.p0.p0.i64(ptr noundef nonnull align 8 dereferenceable(40) %13, ptr noundef nonnull align 8 dereferenceable(40) %4, i64 40, i1 false), !tbaa.struct !98
  call void @llvm.lifetime.end.p0(i64 40, ptr nonnull %4) #10
  %14 = call i32 @EVP_PKEY_CTX_set_params(ptr noundef nonnull %0, ptr noundef nonnull %3)
  br label %15

15:                                               ; preds = %12, %11, %7
  %.0 = phi i32 [ 0, %7 ], [ %14, %12 ], [ -2, %11 ]
  call void @llvm.lifetime.end.p0(i64 80, ptr nonnull %3) #10
  ret i32 %.0
}